target datalayout = "e-m:e-p270:32:32-p271:32:32-p272:64:64-i64:64-i128:128-f80:128-n8:16:32:64-S128"
target triple = "x86_64-pc-linux-gnu"

%"class.ODDLParser::OpenDDLExport" = type { ptr }

; Function Attrs: mustprogress uwtable
define hidden noundef zeroext i1 @_ZN10ODDLParser13OpenDDLParser13exportContextEPNS_7ContextERKNSt7__cxx1112basic_stringIcSt11char_traitsIcESaIcEEE(ptr noundef nonnull align 8 dereferenceable(88) %0, ptr noundef %1, ptr noundef nonnull align 8 dereferenceable(32) %2) #6 align 2 personality ptr @__gxx_personality_v0 {
  %4 = alloca i1, align 1
  %5 = alloca ptr, align 8
  %6 = alloca ptr, align 8
  %7 = alloca ptr, align 8
  %8 = alloca %"class.ODDLParser::OpenDDLExport", align 8
  %9 = alloca ptr, align 8
  %10 = alloca i32, align 4
  store ptr %0, ptr %5, align 8
  store ptr %1, ptr %6, align 8
  store ptr %2, ptr %7, align 8
  %11 = load ptr, ptr %6, align 8
  %12 = icmp eq ptr null, %11
  br i1 %12, label %13, label %14

13:                                               ; preds = %3
  store i1 false, ptr %4, align 1
  br label %23

14:                                               ; preds = %3
  call void @llvm.lifetime.start.p0(i64 8, ptr %8) #3
  call void @_ZN10ODDLParser13OpenDDLExportC1EPNS_12IOStreamBaseE(ptr noundef nonnull align 8 dereferenceable(8) %8, ptr noundef null)
  %15 = load ptr, ptr %6, align 8
  %16 = load ptr, ptr %7, align 8
  %17 = invoke noundef zeroext i1 @_ZN10ODDLParser13OpenDDLExport13exportContextEPNS_7ContextERKNSt7__cxx1112basic_stringIcSt11char_traitsIcESaIcEEE(ptr noundef nonnull align 8 dereferenceable(8) %8, ptr noundef %15, ptr noundef nonnull align 8 dereferenceable(32) %16)
          to label %18 unwind label %19

18:                                               ; preds = %14
  store i1 %17, ptr %4, align 1
  call void @_ZN10ODDLParser13OpenDDLExportD1Ev(ptr noundef nonnull align 8 dereferenceable(8) %8) #3
  call void @llvm.lifetime.end.p0(i64 8, ptr %8) #3
  br label %23

19:                                               ; preds = %14
  %20 = landingpad { ptr, i32 }
          cleanup
  %21 = extractvalue { ptr, i32 } %20, 0
  store ptr %21, ptr %9, align 8
  %22 = extractvalue { ptr, i32 } %20, 1
  store i32 %22, ptr %10, align 4
  call void @_ZN10ODDLParser13OpenDDLExportD1Ev(ptr noundef nonnull align 8 dereferenceable(8) %8) #3
  call void @llvm.lifetime.end.p0(i64 8, ptr %8) #3
  br label %25

23:                                               ; preds = %18, %13
  %24 = load i1, ptr %4, align 1
  ret i1 %24

25:                                               ; preds = %19
  %26 = load ptr, ptr %9, align 8
  %27 = load i32, ptr %10, align 4
  %28 = insertvalue { ptr, i32 } poison, ptr %26, 0
  %29 = insertvalue { ptr, i32 } %28, i32 %27, 1
  resume { ptr, i32 } %29
}