; Function Attrs: mustprogress uwtable
define hidden noundef zeroext i1 @_ZN10ODDLParser13OpenDDLParser13exportContextEPNS_7ContextERKNSt7__cxx1112basic_stringIcSt11char_traitsIcESaIcEEE(ptr noundef nonnull readnone align 8 captures(none) dereferenceable(88) %0, ptr noundef %1, ptr noundef nonnull align 8 dereferenceable(32) %2) local_unnamed_addr #6 align 2 personality ptr @__gxx_personality_v0 {
  %4 = alloca %"class.ODDLParser::OpenDDLExport", align 8
  %5 = icmp eq ptr %1, null
  br i1 %5, label %11, label %6

6:                                                ; preds = %3
  call void @llvm.lifetime.start.p0(i64 8, ptr nonnull %4) #29
  call void @_ZN10ODDLParser13OpenDDLExportC1EPNS_12IOStreamBaseE(ptr noundef nonnull align 8 dereferenceable(8) %4, ptr noundef null)
  %7 = invoke noundef zeroext i1 @_ZN10ODDLParser13OpenDDLExport13exportContextEPNS_7ContextERKNSt7__cxx1112basic_stringIcSt11char_traitsIcESaIcEEE(ptr noundef nonnull align 8 dereferenceable(8) %4, ptr noundef nonnull %1, ptr noundef nonnull align 8 dereferenceable(32) %2)
          to label %8 unwind label %9

8:                                                ; preds = %6
  call void @_ZN10ODDLParser13OpenDDLExportD1Ev(ptr noundef nonnull align 8 dereferenceable(8) %4) #29
  call void @llvm.lifetime.end.p0(i64 8, ptr nonnull %4) #29
  br label %11

9:                                                ; preds = %6
  %10 = landingpad { ptr, i32 }
          cleanup
  call void @_ZN10ODDLParser13OpenDDLExportD1Ev(ptr noundef nonnull align 8 dereferenceable(8) %4) #29
  call void @llvm.lifetime.end.p0(i64 8, ptr nonnull %4) #29
  resume { ptr, i32 } %10

11:                                               ; preds = %3, %8
  %.0 = phi i1 [ %7, %8 ], [ false, %3 ]
  ret i1 %.0
}